; Function Attrs: mustprogress uwtable
define noundef double @_ZNK6opencc13PhraseExtract7EntropyERKNS_19UTF8StringSliceBaseIhEE(ptr nocapture noundef nonnull readonly align 8 dereferenceable(256) %0, ptr noundef nonnull align 8 dereferenceable(10) %1) local_unnamed_addr #3 align 2 {
  %3 = getelementptr inbounds i8, ptr %0, i64 248
  %4 = load ptr, ptr %3, align 8
  %5 = tail call noundef nonnull align 8 dereferenceable(32) ptr @_ZN6opencc13PhraseExtract8DictType3GetERKNS_19UTF8StringSliceBaseIhEE(ptr noundef nonnull align 8 dereferenceable(112) %4, ptr noundef nonnull align 8 dereferenceable(10) %1)
  %6 = getelementptr inbounds i8, ptr %5, i64 16
  %7 = load double, ptr %6, align 8
  %8 = load ptr, ptr %3, align 8
  %9 = tail call noundef nonnull align 8 dereferenceable(32) ptr @_ZN6opencc13PhraseExtract8DictType3GetERKNS_19UTF8StringSliceBaseIhEE(ptr noundef nonnull align 8 dereferenceable(112) %8, ptr noundef nonnull align 8 dereferenceable(10) %1)
  %10 = getelementptr inbounds i8, ptr %9, i64 24
  %11 = load double, ptr %10, align 8
  %12 = fadd double %7, %11
  ret double %12
}